; Function Attrs: nofree norecurse nosync nounwind memory(argmem: readwrite) uwtable
define internal void @palToA_c(ptr noundef writeonly captures(none) %0, ptr noundef readonly captures(none) %1, ptr readnone captures(none) %2, ptr readnone captures(none) %3, i32 noundef %4, ptr noundef readonly captures(none) %5, ptr readnone captures(none) %6) #1 {
  %8 = icmp sgt i32 %4, 0
  br i1 %8, label %.lr.ph.preheader, label %._crit_edge

.lr.ph.preheader:                                 ; preds = %7
  %wide.trip.count = zext nneg i32 %4 to i64
  br label %.lr.ph

.lr.ph:                                           ; preds = %.lr.ph.preheader, %.lr.ph
  %indvars.iv = phi i64 [ 0, %.lr.ph.preheader ], [ %indvars.iv.next, %.lr.ph ]
  %9 = getelementptr inbounds nuw i8, ptr %1, i64 %indvars.iv
  %10 = load i8, ptr %9, align 1, !tbaa !34
  %11 = zext i8 %10 to i64
  %12 = getelementptr inbounds nuw i32, ptr %5, i64 %11
  %13 = load i32, ptr %12, align 4, !tbaa !42
  %14 = lshr i32 %13, 18
  %15 = and i32 %14, 16320
  %16 = lshr i32 %13, 26
  %17 = or disjoint i32 %15, %16
  %18 = trunc nuw nsw i32 %17 to i16
  %19 = getelementptr inbounds nuw i16, ptr %0, i64 %indvars.iv
  store i16 %18, ptr %19, align 2, !tbaa !43
  %indvars.iv.next = add nuw nsw i64 %indvars.iv, 1
  %exitcond.not = icmp eq i64 %indvars.iv.next, %wide.trip.count
  br i1 %exitcond.not, label %._crit_edge, label %.lr.ph, !llvm.loop !155

._crit_edge:                                      ; preds = %.lr.ph, %7
  ret void
}